target datalayout = "e-m:e-p270:32:32-p271:32:32-p272:64:64-i64:64-i128:128-f80:128-n8:16:32:64-S128"
target triple = "x86_64-pc-linux-gnu"

; Function Attrs: nounwind uwtable
define internal i64 @pcipher_ctrl(ptr noundef %0, i32 noundef %1, i64 noundef %2, ptr noundef %3) #0 {
  %5 = alloca i64, align 8
  %6 = alloca ptr, align 8
  %7 = alloca i32, align 4
  %8 = alloca i64, align 8
  %9 = alloca ptr, align 8
  %10 = alloca ptr, align 8
  %11 = alloca i32, align 4
  store ptr %0, ptr %6, align 8, !tbaa !23
  store i32 %1, ptr %7, align 4, !tbaa !13
  store i64 %2, ptr %8, align 8, !tbaa !62
  store ptr %3, ptr %9, align 8, !tbaa !56
  call void @llvm.lifetime.start.p0(i64 8, ptr %10) #8
  %12 = load ptr, ptr %6, align 8, !tbaa !23
  %13 = call ptr @BIO_next(ptr noundef %12)
  store ptr %13, ptr %10, align 8, !tbaa !23
  %14 = load ptr, ptr %10, align 8, !tbaa !23
  %15 = icmp eq ptr %14, null
  br i1 %15, label %16, label %17

16:                                               ; preds = %4
  store i64 -1, ptr %5, align 8
  store i32 1, ptr %11, align 4
  br label %23

17:                                               ; preds = %4
  %18 = load ptr, ptr %10, align 8, !tbaa !23
  %19 = load i32, ptr %7, align 4, !tbaa !13
  %20 = load i64, ptr %8, align 8, !tbaa !62
  %21 = load ptr, ptr %9, align 8, !tbaa !56
  %22 = call i64 @BIO_ctrl(ptr noundef %18, i32 noundef %19, i64 noundef %20, ptr noundef %21)
  store i64 %22, ptr %5, align 8
  store i32 1, ptr %11, align 4
  br label %23

23:                                               ; preds = %17, %16
  call void @llvm.lifetime.end.p0(i64 8, ptr %10) #8
  %24 = load i64, ptr %5, align 8
  ret i64 %24
}