; Function Attrs: nounwind uwtable
define internal i64 @pcipher_ctrl(ptr noundef %0, i32 noundef %1, i64 noundef %2, ptr noundef %3) #0 {
  %5 = tail call ptr @BIO_next(ptr noundef %0) #10
  %6 = icmp eq ptr %5, null
  br i1 %6, label %9, label %7

7:                                                ; preds = %4
  %8 = tail call i64 @BIO_ctrl(ptr noundef nonnull %5, i32 noundef %1, i64 noundef %2, ptr noundef %3) #10
  br label %9

9:                                                ; preds = %4, %7
  %.0 = phi i64 [ %8, %7 ], [ -1, %4 ]
  ret i64 %.0
}